ccollections
OrderedDict
p0
((lp1
(lp2
S'$200'
p3
a(lp4
I1
a(lp5
I8
aI1
aI30
aaaa(lp6
S'1'
p7
a(lp8
I1
a(lp9
I1
aI1
aI105
aaaa(lp10
S'100%'
p11
a(lp12
I1
a(lp13
I8
aI1
aI11
aaaa(lp14
S'2'
p15
a(lp16
I1
a(lp17
I8
aI1
aI23
aaaa(lp18
S'2013'
p19
a(lp20
I1
a(lp21
I1
aI1
aI11
aaaa(lp22
S'2015'
p23
a(lp24
I1
a(lp25
I1
aI1
aI96
aaaa(lp26
S'5'
p27
a(lp28
I1
a(lp29
I1
aI1
aI82
aaaa(lp30
V6mo
p31
a(lp32
I1
a(lp33
I4
aI1
aI22
aaaa(lp34
S'7'
p35
a(lp36
I1
a(lp37
I6
aI2
aI5
aI40
aaaa(lp38
S'720p'
p39
a(lp40
I1
a(lp41
I4
aI1
aI60
aaaa(lp42
S'a'
p43
a(lp44
I8
a(lp45
I1
aI2
aI21
aI85
aa(lp46
I2
aI5
aI13
aI46
aI74
aI86
aI140
aa(lp47
I4
aI2
aI8
aI77
aa(lp48
I5
aI3
aI13
aI20
aI24
aa(lp49
I6
aI2
aI3
aI73
aa(lp50
I8
aI8
aI36
aI48
aI81
aI132
aI147
aI196
aI203
aI224
aa(lp51
I9
aI2
aI72
aI75
aa(lp52
I10
aI1
aI3
aaaa(lp53
Vabl
p54
a(lp55
I1
a(lp56
I2
aI1
aI52
aaaa(lp57
S'about'
p58
a(lp59
I2
a(lp60
I2
aI1
aI30
aa(lp61
I6
aI1
aI56
aaaa(lp62
Vacknowledg
p63
a(lp64
I1
a(lp65
I8
aI2
aI57
aI188
aaaa(lp66
Vactual
p67
a(lp68
I1
a(lp69
I3
aI1
aI89
aaaa(lp70
Vad
p71
a(lp72
I1
a(lp73
I8
aI1
aI80
aaaa(lp74
Vaddit
p75
a(lp76
I1
a(lp77
I6
aI1
aI25
aaaa(lp78
S'after'
p79
a(lp80
I1
a(lp81
I6
aI1
aI42
aaaa(lp82
S'again'
p83
a(lp84
I3
a(lp85
I2
aI1
aI114
aa(lp86
I3
aI1
aI80
aa(lp87
I8
aI2
aI105
aI184
aaaa(lp88
S'ago'
p89
a(lp90
I1
a(lp91
I2
aI1
aI15
aaaa(lp92
S'air'
p93
a(lp94
I1
a(lp95
I8
aI1
aI8
aaaa(lp96
S'all'
p97
a(lp98
I2
a(lp99
I2
aI1
aI136
aa(lp100
I3
aI1
aI69
aaaa(lp101
S'allow'
p102
a(lp103
I1
a(lp104
I7
aI1
aI23
aaaa(lp105
S'also'
p106
a(lp107
I1
a(lp108
I3
aI1
aI70
aaaa(lp109
S'although'
p110
a(lp111
I1
a(lp112
I8
aI1
aI155
aaaa(lp113
S'am'
p114
a(lp115
I1
a(lp116
I4
aI1
aI52
aaaa(lp117
Vamazingli
p118
a(lp119
I1
a(lp120
I8
aI1
aI166
aaaa(lp121
S'american'
p122
a(lp123
I1
a(lp124
I8
aI1
aI76
aaaa(lp125
S'amount'
p126
a(lp127
I1
a(lp128
I8
aI1
aI205
aaaa(lp129
S'an'
p130
a(lp131
I3
a(lp132
I2
aI4
aI22
aI34
aI118
aI129
aa(lp133
I8
aI1
aI3
aa(lp134
I10
aI1
aI19
aaaa(lp135
S'and'
p136
a(lp137
I8
a(lp138
I1
aI2
aI12
aI97
aa(lp139
I2
aI5
aI78
aI91
aI120
aI139
aI145
aa(lp140
I3
aI1
aI23
aa(lp141
I4
aI3
aI24
aI40
aI103
aa(lp142
I6
aI3
aI21
aI29
aI34
aa(lp143
I8
aI5
aI42
aI72
aI101
aI120
aI194
aa(lp144
I9
aI1
aI92
aa(lp145
I10
aI2
aI6
aI29
aaaa(lp146
S'android'
p147
a(lp148
I2
a(lp149
I2
aI1
aI35
aa(lp150
I6
aI1
aI45
aaaa(lp151
Vanoth
p152
a(lp153
I1
a(lp154
I8
aI1
aI112
aaaa(lp155
Vappreci
p156
a(lp157
I1
a(lp158
I6
aI1
aI28
aaaa(lp159
S'are'
p160
a(lp161
I2
a(lp162
I6
aI1
aI26
aa(lp163
I8
aI1
aI219
aaaa(lp164
S'armor'
p165
a(lp166
I1
a(lp167
I2
aI1
aI88
aaaa(lp168
S'as'
p169
a(lp170
I4
a(lp171
I4
aI2
aI70
aI72
aa(lp172
I8
aI1
aI223
aa(lp173
I9
aI1
aI71
aa(lp174
I10
aI1
aI18
aaaa(lp175
Vask
p176
a(lp177
I1
a(lp178
I9
aI1
aI29
aaaa(lp179
Vasu
p180
a(lp181
I3
a(lp182
I1
aI2
aI53
aI81
aa(lp183
I3
aI1
aI30
aa(lp184
I8
aI5
aI28
aI54
aI144
aI170
aI186
aaaa(lp185
S'at'
p186
a(lp187
I5
a(lp188
I1
aI1
aI88
aa(lp189
I3
aI1
aI68
aa(lp190
I4
aI1
aI55
aa(lp191
I7
aI1
aI15
aa(lp192
I8
aI1
aI139
aaaa(lp193
Vautomat
p194
a(lp195
I1
a(lp196
I8
aI1
aI79
aaaa(lp197
S'avoid'
p198
a(lp199
I1
a(lp200
I8
aI1
aI169
aaaa(lp201
Vaw
p202
a(lp203
I1
a(lp204
I1
aI1
aI107
aaaa(lp205
Vawesom
p206
a(lp207
I1
a(lp208
I1
aI1
aI39
aaaa(lp209
S'back'
p210
a(lp211
I2
a(lp212
I1
aI1
aI43
aa(lp213
I2
aI1
aI47
aaaa(lp214
S'bad'
p215
a(lp216
I1
a(lp217
I3
aI2
aI22
aI79
aaaa(lp218
Vbatteri
p219
a(lp220
I1
a(lp221
I5
aI1
aI29
aaaa(lp222
Vbe
p223
a(lp224
I2
a(lp225
I2
aI1
aI51
aa(lp226
I3
aI1
aI48
aaaa(lp227
Vbecam
p228
a(lp229
I1
a(lp230
I8
aI1
aI118
aaaa(lp231
Vbecaus
p232
a(lp233
I1
a(lp234
I8
aI2
aI134
aI173
aaaa(lp235
S'been'
p236
a(lp237
I2
a(lp238
I4
aI1
aI3
aa(lp239
I8
aI1
aI211
aaaa(lp240
Vbefor
p241
a(lp242
I1
a(lp243
I2
aI1
aI24
aaaa(lp244
S'big'
p245
a(lp246
I2
a(lp247
I2
aI1
aI69
aa(lp248
I4
aI1
aI74
aaaa(lp249
S'birthday'
p250
a(lp251
I1
a(lp252
I2
aI1
aI12
aaaa(lp253
Vbook
p254
a(lp255
I1
a(lp256
I4
aI1
aI6
aaaa(lp257
S'bought'
p258
a(lp259
I3
a(lp260
I4
aI1
aI13
aa(lp261
I5
aI1
aI5
aa(lp262
I8
aI1
aI88
aaaa(lp263
Vbrick
p264
a(lp265
I1
a(lp266
I8
aI1
aI1
aaaa(lp267
Vbrows
p268
a(lp269
I1
a(lp270
I4
aI1
aI37
aaaa(lp271
S'but'
p272
a(lp273
I6
a(lp274
I1
aI1
aI29
aa(lp275
I2
aI3
aI38
aI105
aI123
aa(lp276
I3
aI2
aI38
aI57
aa(lp277
I4
aI1
aI82
aa(lp278
I9
aI1
aI77
aa(lp279
I10
aI1
aI22
aaaa(lp280
S'button'
p281
a(lp282
I1
a(lp283
I2
aI1
aI48
aaaa(lp284
S'buy'
p285
a(lp286
I1
a(lp287
I8
aI1
aI97
aaaa(lp288
S'by'
p289
a(lp290
I2
a(lp291
I8
aI2
aI2
aI52
aa(lp292
I9
aI1
aI89
aaaa(lp293
S'camera'
p294
a(lp295
I2
a(lp296
I2
aI1
aI101
aa(lp297
I6
aI1
aI24
aaaa(lp298
S'can'
p299
a(lp300
I2
a(lp301
I6
aI1
aI9
aa(lp302
I9
aI1
aI61
aaaa(lp303
S'case'
p304
a(lp305
I1
a(lp306
I2
aI1
aI93
aaaa(lp307
Vcharg
p308
a(lp309
I1
a(lp310
I3
aI3
aI19
aI34
aI72
aaaa(lp311
S'child'
p312
a(lp313
I1
a(lp314
I9
aI2
aI76
aI83
aaaa(lp315
S'claim'
p316
a(lp317
I1
a(lp318
I8
aI1
aI94
aaaa(lp319
S'common'
p320
a(lp321
I1
a(lp322
I8
aI1
aI113
aaaa(lp323
Vcompani
p324
a(lp325
I1
a(lp326
I8
aI1
aI154
aaaa(lp327
Vcompar
p328
a(lp329
I2
a(lp330
I1
aI2
aI25
aI68
aa(lp331
I6
aI1
aI76
aaaa(lp332
Vcomplet
p333
a(lp334
I1
a(lp335
I8
aI2
aI148
aI172
aaaa(lp336
Vconfid
p337
a(lp338
I1
a(lp339
I8
aI1
aI151
aaaa(lp340
Vcontrol
p341
a(lp342
I1
a(lp343
I7
aI1
aI3
aaaa(lp344
Vconveni
p345
a(lp346
I1
a(lp347
I4
aI1
aI84
aaaa(lp348
Vconvinc
p349
a(lp350
I1
a(lp351
I9
aI1
aI19
aaaa(lp352
S'cooler'
p353
a(lp354
I1
a(lp355
I3
aI1
aI52
aaaa(lp356
S'cost'
p357
a(lp358
I1
a(lp359
I8
aI1
aI201
aaaa(lp360
S'could'
p361
a(lp362
I1
a(lp363
I10
aI1
aI10
aaaa(lp364
Vcount
p365
a(lp366
I1
a(lp367
I4
aI1
aI91
aaaa(lp368
S'counter'
p369
a(lp370
I1
a(lp371
I1
aI1
aI42
aaaa(lp372
Vcrappi
p373
a(lp374
I1
a(lp375
I9
aI1
aI6
aaaa(lp376
S'cursor'
p377
a(lp378
I1
a(lp379
I2
aI1
aI56
aaaa(lp380
Vcustom
p381
a(lp382
I1
a(lp383
I8
aI1
aI222
aaaa(lp384
S'd'
p385
a(lp386
I1
a(lp387
I2
aI1
aI19
aaaa(lp388
Vday
p389
a(lp390
I1
a(lp391
I1
aI1
aI35
aaaa(lp392
Vdeal
p393
a(lp394
I1
a(lp395
I8
aI1
aI142
aaaa(lp396
Vdedic
p397
a(lp398
I1
a(lp399
I4
aI1
aI78
aaaa(lp400
Vdefect
p401
a(lp402
I1
a(lp403
I8
aI1
aI192
aaaa(lp404
Vdelet
p405
a(lp406
I1
a(lp407
I7
aI1
aI6
aaaa(lp408
Vdeserv
p409
a(lp410
I1
a(lp411
I9
aI1
aI84
aaaa(lp412
Vdevic
p413
a(lp414
I3
a(lp415
I2
aI1
aI110
aa(lp416
I5
aI1
aI26
aa(lp417
I10
aI1
aI34
aaaa(lp418
S'devicewear'
p419
a(lp420
I1
a(lp421
I2
aI1
aI92
aaaa(lp422
S'dice'
p423
a(lp424
I1
a(lp425
I8
aI1
aI181
aaaa(lp426
S'difference:'
p427
a(lp428
I1
a(lp429
I6
aI1
aI13
aaaa(lp430
Vdisast
p431
a(lp432
I1
a(lp433
I9
aI1
aI47
aaaa(lp434
S'do'
p435
a(lp436
I4
a(lp437
I1
aI1
aI20
aa(lp438
I7
aI1
aI9
aa(lp439
I8
aI1
aI216
aa(lp440
I9
aI1
aI1
aaaa(lp441
Vdoe
p442
a(lp443
I2
a(lp444
I1
aI1
aI58
aa(lp445
I10
aI1
aI7
aaaa(lp446
Vdrop
p447
a(lp448
I1
a(lp449
I5
aI1
aI34
aaaa(lp450
S'e'
p451
a(lp452
I1
a(lp453
I10
aI1
aI20
aaaa(lp454
Veas
p455
a(lp456
I1
a(lp457
I4
aI1
aI57
aaaa(lp458
Veasili
p459
a(lp460
I1
a(lp461
I6
aI1
aI10
aaaa(lp462
S'ebay'
p463
a(lp464
I1
a(lp465
I8
aI1
aI100
aaaa(lp466
Vebook
p467
a(lp468
I1
a(lp469
I2
aI1
aI77
aaaa(lp470
Vedit
p471
a(lp472
I1
a(lp473
I4
aI3
aI44
aI59
aI80
aaaa(lp474
Velect
p475
a(lp476
I1
a(lp477
I7
aI1
aI24
aaaa(lp478
Vemul
p479
a(lp480
I1
a(lp481
I4
aI1
aI35
aaaa(lp482
Vend
p483
a(lp484
I2
a(lp485
I8
aI1
aI61
aa(lp486
I9
aI1
aI41
aaaa(lp487
Venviron
p488
a(lp489
I1
a(lp490
I3
aI1
aI53
aaaa(lp491
Vestim
p492
a(lp493
I1
a(lp494
I8
aI1
aI71
aaaa(lp495
S'etc'
p496
a(lp497
I1
a(lp498
I5
aI1
aI38
aaaa(lp499
S'even'
p500
a(lp501
I2
a(lp502
I1
aI3
aI47
aI94
aI108
aa(lp503
I8
aI1
aI163
aaaa(lp504
Veveryth
p505
a(lp506
I1
a(lp507
I10
aI1
aI8
aaaa(lp508
Vexpens
p509
a(lp510
I1
a(lp511
I8
aI1
aI226
aaaa(lp512
Vexperienc
p513
a(lp514
I1
a(lp515
I8
aI1
aI51
aaaa(lp516
Vexpress
p517
a(lp518
I1
a(lp519
I8
aI1
aI77
aaaa(lp520
Vfail
p521
a(lp522
I1
a(lp523
I8
aI1
aI110
aaaa(lp524
S'fall'
p525
a(lp526
I1
a(lp527
I9
aI1
aI3
aaaa(lp528
S'fast'
p529
a(lp530
I2
a(lp531
I2
aI1
aI144
aa(lp532
I6
aI1
aI33
aaaa(lp533
Vfeel
p534
a(lp535
I1
a(lp536
I6
aI2
aI32
aI66
aaaa(lp537
S'few'
p538
a(lp539
I2
a(lp540
I3
aI1
aI7
aa(lp541
I4
aI1
aI9
aaaa(lp542
Vfinal
p543
a(lp544
I1
a(lp545
I4
aI1
aI12
aaaa(lp546
S'fine'
p547
a(lp548
I1
a(lp549
I2
aI1
aI115
aaaa(lp550
S'first'
p551
a(lp552
I2
a(lp553
I3
aI1
aI6
aa(lp554
I8
aI2
aI18
aI140
aaaa(lp555
S'five'
p556
a(lp557
I1
a(lp558
I3
aI1
aI85
aaaa(lp559
Vfix
p560
a(lp561
I2
a(lp562
I3
aI1
aI37
aa(lp563
I8
aI2
aI32
aI191
aaaa(lp564
Vflaw
p565
a(lp566
I1
a(lp567
I9
aI1
aI37
aaaa(lp568
Vflawless
p569
a(lp570
I1
a(lp571
I1
aI1
aI84
aaaa(lp572
S'for'
p573
a(lp574
I5
a(lp575
I2
aI2
aI10
aI135
aa(lp576
I3
aI2
aI4
aI31
aa(lp577
I4
aI3
aI7
aI20
aI31
aa(lp578
I8
aI2
aI16
aI111
aa(lp579
I9
aI2
aI4
aI15
aaaa(lp580
S'from'
p581
a(lp582
I3
a(lp583
I1
aI4
aI33
aI55
aI80
aI103
aa(lp584
I4
aI1
aI62
aa(lp585
I6
aI1
aI2
aaaa(lp586
Vfrustrat
p587
a(lp588
I1
a(lp589
I9
aI1
aI88
aaaa(lp590
Vfunction
p591
a(lp592
I1
a(lp593
I3
aI1
aI55
aaaa(lp594
Vgame
p595
a(lp596
I2
a(lp597
I4
aI1
aI34
aa(lp598
I10
aI1
aI30
aaaa(lp599
Vgarbag
p600
a(lp601
I1
a(lp602
I9
aI1
aI60
aaaa(lp603
S'gear'
p604
a(lp605
I1
a(lp606
I1
aI1
aI87
aaaa(lp607
Vget
p608
a(lp609
I5
a(lp610
I2
aI1
aI31
aa(lp611
I3
aI1
aI84
aa(lp612
I4
aI1
aI97
aa(lp613
I8
aI1
aI68
aa(lp614
I9
aI1
aI86
aaaa(lp615
S'give'
p616
a(lp617
I1
a(lp618
I9
aI1
aI69
aaaa(lp619
Vgo
p620
a(lp621
I1
a(lp622
I3
aI1
aI78
aaaa(lp623
S'good'
p624
a(lp625
I4
a(lp626
I2
aI1
aI82
aa(lp627
I4
aI1
aI71
aa(lp628
I5
aI2
aI25
aI28
aa(lp629
I8
aI1
aI161
aaaa(lp630
Vgoogl
p631
a(lp632
I3
a(lp633
I1
aI3
aI56
aI57
aI104
aa(lp634
I7
aI2
aI2
aI21
aa(lp635
I8
aI1
aI39
aaaa(lp636
S'gopro'
p637
a(lp638
I1
a(lp639
I4
aI1
aI46
aaaa(lp640
S'got'
p641
a(lp642
I2
a(lp643
I3
aI1
aI75
aa(lp644
I8
aI1
aI102
aaaa(lp645
S'great'
p646
a(lp647
I5
a(lp648
I1
aI1
aI89
aa(lp649
I2
aI1
aI134
aa(lp650
I3
aI1
aI3
aa(lp651
I6
aI1
aI17
aa(lp652
I10
aI1
aI4
aaaa(lp653
Vguess
p654
a(lp655
I1
a(lp656
I6
aI1
aI48
aaaa(lp657
Vha
p658
a(lp659
I2
a(lp660
I1
aI2
aI14
aI51
aa(lp661
I5
aI1
aI16
aaaa(lp662
S'had'
p663
a(lp664
I4
a(lp665
I3
aI1
aI25
aa(lp666
I4
aI1
aI18
aa(lp667
I8
aI1
aI187
aa(lp668
I9
aI1
aI54
aaaa(lp669
Vhappen
p670
a(lp671
I1
a(lp672
I8
aI1
aI22
aaaa(lp673
Vhappi
p674
a(lp675
I2
a(lp676
I4
aI1
aI95
aa(lp677
I6
aI1
aI84
aaaa(lp678
S'hard'
p679
a(lp680
I1
a(lp681
I9
aI2
aI12
aI14
aaaa(lp682
Vhardwar
p683
a(lp684
I2
a(lp685
I1
aI1
aI79
aa(lp686
I9
aI1
aI93
aaaa(lp687
Vhate
p688
a(lp689
I1
a(lp690
I9
aI1
aI43
aaaa(lp691
Vhave
p692
a(lp693
I5
a(lp694
I2
aI2
aI45
aI117
aa(lp695
I3
aI1
aI11
aa(lp696
I6
aI1
aI64
aa(lp697
I8
aI3
aI160
aI200
aI210
aa(lp698
I10
aI1
aI27
aaaa(lp699
S'he'
p700
a(lp701
I1
a(lp702
I5
aI2
aI15
aI32
aaaa(lp703
S'hero4'
p704
a(lp705
I1
a(lp706
I4
aI2
aI64
aI102
aaaa(lp707
Vhi
p708
a(lp709
I1
a(lp710
I5
aI1
aI8
aaaa(lp711
S'hold'
p712
a(lp713
I1
a(lp714
I7
aI1
aI20
aaaa(lp715
Vhundr
p716
a(lp717
I1
a(lp718
I8
aI1
aI53
aaaa(lp719
S'husband'
p720
a(lp721
I1
a(lp722
I2
aI1
aI7
aaaa(lp723
S'i'
p724
a(lp725
I7
a(lp726
I2
aI13
aI1
aI18
aI26
aI40
aI43
aI49
aI58
aI61
aI72
aI83
aI107
aI116
aI124
aa(lp727
I3
aI1
aI24
aa(lp728
I4
aI6
aI1
aI16
aI28
aI41
aI65
aI92
aa(lp729
I6
aI4
aI47
aI52
aI63
aI81
aa(lp730
I8
aI8
aI13
aI60
aI87
aI90
aI125
aI135
aI167
aI174
aa(lp731
I9
aI8
aI10
aI22
aI27
aI32
aI40
aI53
aI66
aI79
aa(lp732
I10
aI2
aI9
aI14
aaaa(lp733
S'if'
p734
a(lp735
I4
a(lp736
I1
aI2
aI48
aI109
aa(lp737
I2
aI1
aI106
aa(lp738
I3
aI1
aI87
aa(lp739
I8
aI1
aI185
aaaa(lp740
Vimmedi
p741
a(lp742
I1
a(lp743
I2
aI1
aI84
aaaa(lp744
S'in'
p745
a(lp746
I3
a(lp747
I3
aI1
aI51
aa(lp748
I8
aI2
aI65
aI146
aa(lp749
I9
aI2
aI38
aI58
aaaa(lp750
S'instead'
p751
a(lp752
I3
a(lp753
I5
aI1
aI11
aa(lp754
I8
aI1
aI217
aa(lp755
I9
aI1
aI62
aaaa(lp756
S'internet'
p757
a(lp758
I1
a(lp759
I10
aI1
aI28
aaaa(lp760
S'ipad'
p761
a(lp762
I1
a(lp763
I2
aI1
aI130
aaaa(lp764
Viphon
p765
a(lp766
I1
a(lp767
I2
aI2
aI23
aI119
aaaa(lp768
S'ipod'
p769
a(lp770
I1
a(lp771
I2
aI1
aI121
aaaa(lp772
S'is'
p773
a(lp774
I8
a(lp775
I1
aI5
aI24
aI38
aI44
aI49
aI110
aa(lp776
I2
aI2
aI81
aI143
aa(lp777
I3
aI1
aI77
aa(lp778
I4
aI1
aI89
aa(lp779
I5
aI1
aI23
aa(lp780
I6
aI2
aI16
aI57
aa(lp781
I8
aI1
aI47
aa(lp782
I10
aI1
aI2
aaaa(lp783
Vissu
p784
a(lp785
I2
a(lp786
I3
aI2
aI12
aI42
aa(lp787
I8
aI3
aI50
aI59
aI114
aaaa(lp788
S'it'
p789
a(lp790
I8
a(lp791
I2
aI6
aI42
aI60
aI79
aI95
aI98
aI112
aa(lp792
I3
aI6
aI1
aI28
aI45
aI54
aI59
aI88
aa(lp793
I4
aI4
aI19
aI30
aI49
aI67
aa(lp794
I5
aI3
aI18
aI22
aI35
aa(lp795
I6
aI1
aI31
aa(lp796
I8
aI10
aI15
aI33
aI46
aI64
aI89
aI103
aI109
aI138
aI198
aI208
aa(lp797
I9
aI5
aI36
aI57
aI65
aI70
aI90
aa(lp798
I10
aI3
aI12
aI16
aI23
aaaa(lp799
Vjumpi
p800
a(lp801
I1
a(lp802
I8
aI1
aI119
aaaa(lp803
S'junk'
p804
a(lp805
I1
a(lp806
I8
aI1
aI124
aaaa(lp807
S'just'
p808
a(lp809
I2
a(lp810
I4
aI2
aI42
aI94
aa(lp811
I8
aI1
aI66
aaaa(lp812
Vjustifi
p813
a(lp814
I1
a(lp815
I9
aI1
aI35
aaaa(lp816
S'kinemasteri'
p817
a(lp818
I1
a(lp819
I4
aI1
aI51
aaaa(lp820
S'know'
p821
a(lp822
I2
a(lp823
I1
aI1
aI50
aa(lp824
I4
aI1
aI66
aaaa(lp825
S'l'
p826
a(lp827
I1
a(lp828
I6
aI1
aI46
aaaa(lp829
S'laptop'
p830
a(lp831
I1
a(lp832
I5
aI1
aI14
aaaa(lp833
S'later'
p834
a(lp835
I1
a(lp836
I8
aI1
aI108
aaaa(lp837
S'least'
p838
a(lp839
I1
a(lp840
I7
aI1
aI16
aaaa(lp841
Vless
p842
a(lp843
I1
a(lp844
I8
aI1
aI225
aaaa(lp845
S'lg'
p846
a(lp847
I1
a(lp848
I1
aI1
aI73
aaaa(lp849
S'life'
p850
a(lp851
I1
a(lp852
I5
aI1
aI30
aaaa(lp853
S'lighter'
p854
a(lp855
I1
a(lp856
I6
aI1
aI74
aaaa(lp857
S'like'
p858
a(lp859
I3
a(lp860
I1
aI1
aI17
aa(lp861
I2
aI1
aI62
aa(lp862
I8
aI1
aI137
aaaa(lp863
Vlittl
p864
a(lp865
I1
a(lp866
I4
aI1
aI87
aaaa(lp867
Vloss
p868
a(lp869
I1
a(lp870
I8
aI2
aI149
aI227
aaaa(lp871
S'lot'
p872
a(lp873
I2
a(lp874
I2
aI1
aI75
aa(lp875
I5
aI1
aI21
aaaa(lp876
S'love'
p877
a(lp878
I2
a(lp879
I2
aI3
aI3
aI44
aI50
aa(lp880
I8
aI1
aI14
aaaa(lp881
S'lower'
p882
a(lp883
I1
a(lp884
I1
aI1
aI30
aaaa(lp885
S'm'
p886
a(lp887
I4
a(lp888
I4
aI1
aI93
aa(lp889
I6
aI2
aI53
aI82
aa(lp890
I8
aI1
aI175
aa(lp891
I9
aI2
aI23
aI28
aaaa(lp892
Vmachin
p893
a(lp894
I1
a(lp895
I4
aI1
aI81
aaaa(lp896
Vmainli
p897
a(lp898
I1
a(lp899
I10
aI1
aI17
aaaa(lp900
S'me'
p901
a(lp902
I1
a(lp903
I2
aI1
aI9
aaaa(lp904
S'model'
p905
a(lp906
I1
a(lp907
I6
aI1
aI7
aaaa(lp908
S'modern'
p909
a(lp910
I1
a(lp911
I1
aI1
aI28
aaaa(lp912
S'money'
p913
a(lp914
I2
a(lp915
I5
aI1
aI10
aa(lp916
I8
aI2
aI95
aI207
aaaa(lp917
Vmonth
p918
a(lp919
I2
a(lp920
I3
aI1
aI8
aa(lp921
I8
aI2
aI24
aI107
aaaa(lp922
S'more'
p923
a(lp924
I2
a(lp925
I1
aI1
aI27
aa(lp926
I8
aI1
aI34
aaaa(lp927
S'most'
p928
a(lp929
I1
a(lp930
I1
aI1
aI7
aaaa(lp931
S'move'
p932
a(lp933
I1
a(lp934
I2
aI1
aI54
aaaa(lp935
Vmovi
p936
a(lp937
I1
a(lp938
I4
aI1
aI33
aaaa(lp939
S'much'
p940
a(lp941
I3
a(lp942
I2
aI1
aI125
aa(lp943
I8
aI1
aI129
aa(lp944
I9
aI2
aI31
aI49
aaaa(lp945
S'my'
p946
a(lp947
I5
a(lp948
I2
aI4
aI4
aI6
aI11
aI100
aa(lp949
I4
aI5
aI45
aI63
aI73
aI98
aI101
aa(lp950
I5
aI1
aI1
aa(lp951
I6
aI3
aI37
aI68
aI86
aa(lp952
I8
aI1
aI141
aaaa(lp953
S'myself'
p954
a(lp955
I1
a(lp956
I9
aI1
aI20
aaaa(lp957
S'net'
p958
a(lp959
I1
a(lp960
I4
aI1
aI5
aaaa(lp961
S'new'
p962
a(lp963
I1
a(lp964
I8
aI1
aI37
aaaa(lp965
S'next'
p966
a(lp967
I1
a(lp968
I1
aI1
aI98
aaaa(lp969
Vnexu
p970
a(lp971
I3
a(lp972
I1
aI1
aI54
aa(lp973
I2
aI1
aI5
aa(lp974
I6
aI2
aI4
aI39
aaaa(lp975
S'nice'
p976
a(lp977
I1
a(lp978
I10
aI1
aI25
aaaa(lp979
S'no'
p980
a(lp981
I1
a(lp982
I9
aI1
aI82
aaaa(lp983
S'not'
p984
a(lp985
I7
a(lp986
I2
aI1
aI67
aa(lp987
I3
aI1
aI44
aa(lp988
I4
aI1
aI69
aa(lp989
I6
aI1
aI54
aa(lp990
I7
aI1
aI10
aa(lp991
I8
aI1
aI176
aa(lp992
I9
aI1
aI2
aaaa(lp993
Vnotic
p994
a(lp995
I1
a(lp996
I6
aI1
aI11
aaaa(lp997
S'now'
p998
a(lp999
I4
a(lp1000
I1
aI1
aI34
aa(lp1001
I2
aI1
aI39
aa(lp1002
I4
aI3
aI11
aI23
aI25
aa(lp1003
I8
aI1
aI168
aaaa(lp1004
S'of'
p1005
a(lp1006
I7
a(lp1007
I1
aI2
aI5
aI62
aa(lp1008
I2
aI2
aI65
aI76
aa(lp1009
I4
aI2
aI58
aI85
aa(lp1010
I5
aI1
aI12
aa(lp1011
I6
aI1
aI60
aa(lp1012
I8
aI5
aI26
aI123
aI150
aI157
aI206
aa(lp1013
I9
aI2
aI46
aI63
aaaa(lp1014
S'off'
p1015
a(lp1016
I2
a(lp1017
I4
aI1
aI100
aa(lp1018
I8
aI1
aI221
aaaa(lp1019
S'older'
p1020
a(lp1021
I1
a(lp1022
I6
aI3
aI6
aI38
aI69
aaaa(lp1023
S'on'
p1024
a(lp1025
I6
a(lp1026
I1
aI3
aI10
aI72
aI95
aa(lp1027
I2
aI1
aI94
aa(lp1028
I4
aI1
aI48
aa(lp1029
I7
aI1
aI19
aa(lp1030
I8
aI2
aI99
aI131
aa(lp1031
I10
aI1
aI31
aaaa(lp1032
S'one'
p1033
a(lp1034
I3
a(lp1035
I1
aI3
aI2
aI4
aI71
aa(lp1036
I6
aI1
aI79
aa(lp1037
I8
aI3
aI38
aI106
aI165
aaaa(lp1038
Vonli
p1039
a(lp1040
I3
a(lp1041
I1
aI1
aI41
aa(lp1042
I2
aI1
aI20
aa(lp1043
I6
aI1
aI50
aaaa(lp1044
S'onto'
p1045
a(lp1046
I1
a(lp1047
I4
aI1
aI104
aaaa(lp1048
Voper
p1049
a(lp1050
I1
a(lp1051
I2
aI1
aI36
aaaa(lp1052
Voption
p1053
a(lp1054
I1
a(lp1055
I1
aI1
aI32
aaaa(lp1056
S'or'
p1057
a(lp1058
I4
a(lp1059
I1
aI1
aI74
aa(lp1060
I2
aI1
aI70
aa(lp1061
I4
aI1
aI76
aa(lp1062
I7
aI1
aI14
aaaa(lp1063
S'os'
p1064
a(lp1065
I1
a(lp1066
I1
aI2
aI65
aI102
aaaa(lp1067
S'out'
p1068
a(lp1069
I1
a(lp1070
I8
aI1
aI25
aaaa(lp1071
S'over'
p1072
a(lp1073
I2
a(lp1074
I4
aI1
aI21
aa(lp1075
I8
aI1
aI6
aaaa(lp1076
Voveral
p1077
a(lp1078
I1
a(lp1079
I6
aI2
aI30
aI80
aaaa(lp1080
S'own'
p1081
a(lp1082
I1
a(lp1083
I1
aI1
aI64
aaaa(lp1084
Vpart
p1085
a(lp1086
I1
a(lp1087
I8
aI1
aI98
aaaa(lp1088
S'pc'
p1089
a(lp1090
I1
a(lp1091
I4
aI1
aI75
aaaa(lp1092
Vpicki
p1093
a(lp1094
I1
a(lp1095
I9
aI1
aI25
aaaa(lp1096
Vpiec
p1097
a(lp1098
I2
a(lp1099
I8
aI1
aI122
aa(lp1100
I9
aI1
aI45
aaaa(lp1101
Vplu
p1102
a(lp1103
I1
a(lp1104
I1
aI1
aI22
aaaa(lp1105
S'point'
p1106
a(lp1107
I1
a(lp1108
I9
aI1
aI52
aaaa(lp1109
S'port'
p1110
a(lp1111
I1
a(lp1112
I3
aI2
aI20
aI73
aaaa(lp1113
Vpower
p1114
a(lp1115
I1
a(lp1116
I1
aI1
aI8
aaaa(lp1117
S'pre'
p1118
a(lp1119
I1
a(lp1120
I5
aI1
aI2
aaaa(lp1121
S'prefer'
p1122
a(lp1123
I1
a(lp1124
I2
aI2
aI41
aI126
aaaa(lp1125
S'present'
p1126
a(lp1127
I1
a(lp1128
I9
aI1
aI73
aaaa(lp1129
S'price'
p1130
a(lp1131
I2
a(lp1132
I1
aI1
aI90
aa(lp1133
I2
aI1
aI132
aaaa(lp1134
S'problem'
p1135
a(lp1136
I3
a(lp1137
I3
aI1
aI35
aa(lp1138
I4
aI1
aI26
aa(lp1139
I8
aI2
aI41
aI190
aaaa(lp1140
Vproduct
p1141
a(lp1142
I1
a(lp1143
I8
aI2
aI159
aI171
aaaa(lp1144
Vprofil
p1145
a(lp1146
I1
a(lp1147
I1
aI1
aI31
aaaa(lp1148
Vproperli
p1149
a(lp1150
I1
a(lp1151
I3
aI2
aI56
aI91
aaaa(lp1152
S'protect'
p1153
a(lp1154
I1
a(lp1155
I2
aI1
aI97
aaaa(lp1156
S'protector'
p1157
a(lp1158
I1
a(lp1159
I2
aI1
aI90
aaaa(lp1160
Vpurchas
p1161
a(lp1162
I1
a(lp1163
I6
aI1
aI87
aaaa(lp1164
Vpush
p1165
a(lp1166
I1
a(lp1167
I8
aI1
aI5
aaaa(lp1168
S'put'
p1169
a(lp1170
I2
a(lp1171
I2
aI1
aI85
aa(lp1172
I7
aI1
aI17
aaaa(lp1173
Vquit
p1174
a(lp1175
I2
a(lp1176
I5
aI1
aI19
aa(lp1177
I6
aI1
aI83
aaaa(lp1178
Vreact
p1179
a(lp1180
I1
a(lp1181
I6
aI1
aI71
aaaa(lp1182
S'read'
p1183
a(lp1184
I1
a(lp1185
I2
aI1
aI73
aaaa(lp1186
S'reader'
p1187
a(lp1188
I1
a(lp1189
I10
aI1
aI21
aaaa(lp1190
Vrealiz
p1191
a(lp1192
I1
a(lp1193
I9
aI1
aI80
aaaa(lp1194
Vrealli
p1195
a(lp1196
I3
a(lp1197
I2
aI1
aI2
aa(lp1198
I6
aI1
aI27
aa(lp1199
I8
aI1
aI136
aaaa(lp1200
S'rear'
p1201
a(lp1202
I1
a(lp1203
I6
aI1
aI23
aaaa(lp1204
S'recommend'
p1205
a(lp1206
I1
a(lp1207
I5
aI1
aI40
aaaa(lp1208
Vreleas
p1209
a(lp1210
I1
a(lp1211
I8
aI1
aI195
aaaa(lp1212
S'repair'
p1213
a(lp1214
I2
a(lp1215
I3
aI1
aI32
aa(lp1216
I8
aI1
aI70
aaaa(lp1217
Vreplac
p1218
a(lp1219
I1
a(lp1220
I3
aI1
aI76
aaaa(lp1221
Vrespons
p1222
a(lp1223
I2
a(lp1224
I5
aI1
aI27
aa(lp1225
I6
aI2
aI35
aI59
aaaa(lp1226
S'restart'
p1227
a(lp1228
I1
a(lp1229
I2
aI1
aI108
aaaa(lp1230
Vresult
p1231
a(lp1232
I1
a(lp1233
I8
aI1
aI145
aaaa(lp1234
Vreturn
p1235
a(lp1236
I1
a(lp1237
I9
aI1
aI64
aaaa(lp1238
Vreview
p1239
a(lp1240
I1
a(lp1241
I8
aI1
aI162
aaaa(lp1242
Vrevis
p1243
a(lp1244
I1
a(lp1245
I8
aI1
aI197
aaaa(lp1246
Vridicul
p1247
a(lp1248
I1
a(lp1249
I1
aI1
aI46
aaaa(lp1250
S'right'
p1251
a(lp1252
I1
a(lp1253
I8
aI1
aI213
aaaa(lp1254
Vrock
p1255
a(lp1256
I1
a(lp1257
I1
aI1
aI93
aaaa(lp1258
S'roll'
p1259
a(lp1260
I1
a(lp1261
I8
aI1
aI179
aaaa(lp1262
S's'
p1263
a(lp1264
I4
a(lp1265
I3
aI1
aI60
aa(lp1266
I4
aI2
aI14
aI68
aa(lp1267
I5
aI1
aI33
aa(lp1268
I10
aI1
aI24
aaaa(lp1269
S'same'
p1270
a(lp1271
I1
a(lp1272
I10
aI1
aI33
aaaa(lp1273
Vsave
p1274
a(lp1275
I1
a(lp1276
I5
aI1
aI9
aaaa(lp1277
S'screen'
p1278
a(lp1279
I5
a(lp1280
I1
aI1
aI37
aa(lp1281
I2
aI1
aI89
aa(lp1282
I3
aI3
aI16
aI41
aI64
aa(lp1283
I6
aI2
aI15
aI62
aa(lp1284
I8
aI1
aI117
aaaa(lp1285
S'see'
p1286
a(lp1287
I1
a(lp1288
I8
aI1
aI45
aaaa(lp1289
Vseem
p1290
a(lp1291
I1
a(lp1292
I3
aI1
aI46
aaaa(lp1293
S'send'
p1294
a(lp1295
I2
a(lp1296
I3
aI1
aI27
aa(lp1297
I8
aI1
aI63
aaaa(lp1298
Vsensit
p1299
a(lp1300
I1
a(lp1301
I3
aI1
aI50
aaaa(lp1302
Vsever
p1303
a(lp1304
I1
a(lp1305
I5
aI1
aI36
aaaa(lp1306
S'shame'
p1307
a(lp1308
I1
a(lp1309
I8
aI1
aI133
aaaa(lp1310
Vshop
p1311
a(lp1312
I1
a(lp1313
I4
aI1
aI36
aaaa(lp1314
S'should'
p1315
a(lp1316
I1
a(lp1317
I7
aI1
aI22
aaaa(lp1318
S'size'
p1319
a(lp1320
I1
a(lp1321
I2
aI1
aI64
aaaa(lp1322
S'slimport'
p1323
a(lp1324
I1
a(lp1325
I1
aI1
aI18
aaaa(lp1326
S'slow'
p1327
a(lp1328
I1
a(lp1329
I9
aI1
aI8
aaaa(lp1330
Vsluggi
p1331
a(lp1332
I1
a(lp1333
I9
aI1
aI91
aaaa(lp1334
S'small'
p1335
a(lp1336
I1
a(lp1337
I2
aI1
aI71
aaaa(lp1338
S'so'
p1339
a(lp1340
I3
a(lp1341
I1
aI1
aI77
aa(lp1342
I2
aI1
aI25
aa(lp1343
I9
aI2
aI48
aI87
aaaa(lp1344
Vsoftwar
p1345
a(lp1346
I1
a(lp1347
I1
aI1
aI101
aaaa(lp1348
S'some'
p1349
a(lp1350
I2
a(lp1351
I1
aI1
aI15
aa(lp1352
I8
aI1
aI156
aaaa(lp1353
Vsometim
p1354
a(lp1355
I1
a(lp1356
I2
aI1
aI99
aaaa(lp1357
S'son'
p1358
a(lp1359
I1
a(lp1360
I5
aI1
aI4
aaaa(lp1361
Vsoni
p1362
a(lp1363
I1
a(lp1364
I1
aI1
aI75
aaaa(lp1365
S'soon'
p1366
a(lp1367
I1
a(lp1368
I9
aI1
aI78
aaaa(lp1369
Vspeaker
p1370
a(lp1371
I1
a(lp1372
I6
aI1
aI20
aaaa(lp1373
Vspecial
p1374
a(lp1375
I1
a(lp1376
I6
aI1
aI41
aaaa(lp1377
Vstar
p1378
a(lp1379
I2
a(lp1380
I1
aI2
aI83
aI106
aa(lp1381
I3
aI1
aI86
aaaa(lp1382
Vstart
p1383
a(lp1384
I2
a(lp1385
I3
aI1
aI10
aa(lp1386
I4
aI1
aI43
aaaa(lp1387
S'stero'
p1388
a(lp1389
I1
a(lp1390
I6
aI1
aI19
aaaa(lp1391
S'still'
p1392
a(lp1393
I1
a(lp1394
I1
aI2
aI13
aI92
aaaa(lp1395
S'stock'
p1396
a(lp1397
I1
a(lp1398
I8
aI1
aI12
aaaa(lp1399
Vstorag
p1400
a(lp1401
I1
a(lp1402
I2
aI1
aI138
aaaa(lp1403
Vsubmit
p1404
a(lp1405
I1
a(lp1406
I8
aI1
aI73
aaaa(lp1407
S'super'
p1408
a(lp1409
I1
a(lp1410
I9
aI1
aI7
aaaa(lp1411
S'sure'
p1412
a(lp1413
I1
a(lp1414
I2
aI1
aI29
aaaa(lp1415
Vsurpris
p1416
a(lp1417
I2
a(lp1418
I2
aI1
aI8
aa(lp1419
I4
aI1
aI54
aaaa(lp1420
Vsuspens
p1421
a(lp1422
I1
a(lp1423
I7
aI1
aI25
aaaa(lp1424
Vsystem
p1425
a(lp1426
I2
a(lp1427
I1
aI2
aI9
aI76
aa(lp1428
I2
aI1
aI37
aaaa(lp1429
S't'
p1430
a(lp1431
I3
a(lp1432
I2
aI2
aI28
aI103
aa(lp1433
I3
aI1
aI66
aa(lp1434
I8
aI1
aI56
aaaa(lp1435
S'tablet'
p1436
a(lp1437
I6
a(lp1438
I2
aI1
aI141
aa(lp1439
I3
aI1
aI82
aa(lp1440
I4
aI2
aI15
aI88
aa(lp1441
I6
aI1
aI70
aa(lp1442
I9
aI1
aI9
aa(lp1443
I10
aI1
aI5
aaaa(lp1444
S'tech'
p1445
a(lp1446
I1
a(lp1447
I2
aI1
aI87
aaaa(lp1448
S'teen'
p1449
a(lp1450
I1
a(lp1451
I5
aI1
aI3
aaaa(lp1452
Vtemperatur
p1453
a(lp1454
I1
a(lp1455
I3
aI1
aI49
aaaa(lp1456
S'than'
p1457
a(lp1458
I2
a(lp1459
I2
aI1
aI111
aa(lp1460
I8
aI1
aI35
aaaa(lp1461
S'that'
p1462
a(lp1463
I6
a(lp1464
I1
aI2
aI19
aI45
aa(lp1465
I2
aI1
aI142
aa(lp1466
I3
aI1
aI74
aa(lp1467
I6
aI1
aI67
aa(lp1468
I8
aI1
aI74
aa(lp1469
I9
aI4
aI21
aI26
aI44
aI81
aaaa(lp1470
S'the'
p1471
a(lp1472
I8
a(lp1473
I1
aI7
aI6
aI36
aI40
aI52
aI59
aI70
aI78
aa(lp1474
I2
aI5
aI55
aI63
aI109
aI131
aI137
aa(lp1475
I3
aI7
aI5
aI14
aI18
aI33
aI39
aI62
aI71
aa(lp1476
I4
aI3
aI38
aI56
aI83
aa(lp1477
I6
aI8
aI12
aI14
aI18
aI22
aI49
aI58
aI61
aI65
aa(lp1478
I8
aI12
aI7
aI17
aI40
aI58
aI69
aI84
aI93
aI115
aI153
aI180
aI189
aI212
aa(lp1479
I9
aI2
aI51
aI59
aa(lp1480
I10
aI1
aI32
aaaa(lp1481
S'their'
p1482
a(lp1483
I2
a(lp1484
I1
aI1
aI63
aa(lp1485
I8
aI1
aI158
aaaa(lp1486
S'them'
p1487
a(lp1488
I2
a(lp1489
I7
aI1
aI18
aa(lp1490
I8
aI2
aI183
aI202
aaaa(lp1491
S'then'
p1492
a(lp1493
I2
a(lp1494
I3
aI2
aI9
aI17
aa(lp1495
I8
aI2
aI20
aI91
aaaa(lp1496
S'they'
p1497
a(lp1498
I1
a(lp1499
I8
aI1
aI218
aaaa(lp1500
Vthi
p1501
a(lp1502
I9
a(lp1503
I1
aI2
aI1
aI91
aa(lp1504
I2
aI3
aI17
aI66
aI127
aa(lp1505
I3
aI1
aI81
aa(lp1506
I4
aI1
aI86
aa(lp1507
I5
aI1
aI6
aa(lp1508
I6
aI1
aI78
aa(lp1509
I8
aI3
aI9
aI21
aI164
aa(lp1510
I9
aI1
aI5
aa(lp1511
I10
aI1
aI1
aaaa(lp1512
Vthing
p1513
a(lp1514
I4
a(lp1515
I1
aI1
aI16
aa(lp1516
I6
aI1
aI51
aa(lp1517
I7
aI1
aI7
aa(lp1518
I8
aI1
aI214
aaaa(lp1519
S'thought'
p1520
a(lp1521
I1
a(lp1522
I9
aI1
aI67
aaaa(lp1523
Vthrill
p1524
a(lp1525
I1
a(lp1526
I6
aI1
aI55
aaaa(lp1527
S'throw'
p1528
a(lp1529
I1
a(lp1530
I9
aI1
aI56
aaaa(lp1531
Vtime
p1532
a(lp1533
I2
a(lp1534
I5
aI1
aI37
aa(lp1535
I8
aI1
aI130
aaaa(lp1536
S'to'
p1537
a(lp1538
I9
a(lp1539
I1
aI1
aI26
aa(lp1540
I2
aI4
aI33
aI53
aI96
aI128
aa(lp1541
I3
aI3
aI26
aI29
aI47
aa(lp1542
I4
aI1
aI96
aa(lp1543
I6
aI3
aI44
aI72
aI77
aa(lp1544
I7
aI2
aI5
aI12
aa(lp1545
I8
aI7
aI31
aI67
aI75
aI83
aI96
aI178
aI215
aa(lp1546
I9
aI7
aI18
aI34
aI50
aI55
aI68
aI74
aI85
aa(lp1547
I10
aI2
aI13
aI26
aaaa(lp1548
S'too'
p1549
a(lp1550
I5
a(lp1551
I1
aI1
aI100
aa(lp1552
I2
aI1
aI68
aa(lp1553
I7
aI1
aI1
aa(lp1554
I8
aI1
aI128
aa(lp1555
I9
aI2
aI24
aI30
aaaa(lp1556
S'topnotch'
p1557
a(lp1558
I1
a(lp1559
I1
aI1
aI86
aaaa(lp1560
S'touch'
p1561
a(lp1562
I4
a(lp1563
I2
aI1
aI122
aa(lp1564
I3
aI3
aI15
aI40
aI63
aa(lp1565
I6
aI1
aI75
aa(lp1566
I8
aI1
aI116
aaaa(lp1567
S'tough'
p1568
a(lp1569
I1
a(lp1570
I5
aI1
aI31
aaaa(lp1571
Vtri
p1572
a(lp1573
I1
a(lp1574
I9
aI2
aI11
aI33
aaaa(lp1575
S'trivial'
p1576
a(lp1577
I1
a(lp1578
I8
aI1
aI204
aaaa(lp1579
S'two'
p1580
a(lp1581
I1
a(lp1582
I9
aI1
aI16
aaaa(lp1583
Vugli
p1584
a(lp1585
I1
a(lp1586
I9
aI1
aI94
aaaa(lp1587
Vunabl
p1588
a(lp1589
I1
a(lp1590
I7
aI1
aI4
aaaa(lp1591
Vunit
p1592
a(lp1593
I1
a(lp1594
I8
aI1
aI193
aaaa(lp1595
Vunlik
p1596
a(lp1597
I1
a(lp1598
I6
aI1
aI36
aaaa(lp1599
Vunrespons
p1600
a(lp1601
I1
a(lp1602
I8
aI1
aI121
aaaa(lp1603
S'up'
p1604
a(lp1605
I2
a(lp1606
I8
aI1
aI62
aa(lp1607
I9
aI1
aI42
aaaa(lp1608
Vupdat
p1609
a(lp1610
I2
a(lp1611
I1
aI1
aI111
aa(lp1612
I8
aI1
aI4
aaaa(lp1613
Vupgrad
p1614
a(lp1615
I1
a(lp1616
I6
aI2
aI1
aI43
aaaa(lp1617
S'use'
p1618
a(lp1619
I7
a(lp1620
I1
aI1
aI61
aa(lp1621
I2
aI2
aI21
aI32
aa(lp1622
I4
aI2
aI4
aI29
aa(lp1623
I5
aI1
aI17
aa(lp1624
I7
aI1
aI13
aa(lp1625
I8
aI1
aI92
aa(lp1626
I10
aI1
aI15
aaaa(lp1627
S've'
p1628
a(lp1629
I2
a(lp1630
I4
aI2
aI2
aI17
aa(lp1631
I8
aI1
aI126
aaaa(lp1632
S'vein'
p1633
a(lp1634
I1
a(lp1635
I9
aI1
aI39
aaaa(lp1636
Vveri
p1637
a(lp1638
I2
a(lp1639
I4
aI1
aI53
aa(lp1640
I9
aI1
aI13
aaaa(lp1641
Vvideo
p1642
a(lp1643
I1
a(lp1644
I4
aI4
aI47
aI61
aI79
aI99
aaaa(lp1645
S'vimeo'
p1646
a(lp1647
I1
a(lp1648
I4
aI1
aI105
aaaa(lp1649
Vwa
p1650
a(lp1651
I4
a(lp1652
I1
aI1
aI3
aa(lp1653
I2
aI1
aI133
aa(lp1654
I3
aI1
aI36
aa(lp1655
I8
aI1
aI10
aaaa(lp1656
S'want'
p1657
a(lp1658
I4
a(lp1659
I2
aI1
aI59
aa(lp1660
I7
aI1
aI11
aa(lp1661
I8
aI1
aI29
aa(lp1662
I10
aI1
aI11
aaaa(lp1663
S'warmer'
p1664
a(lp1665
I1
a(lp1666
I3
aI1
aI61
aaaa(lp1667
Vwarranti
p1668
a(lp1669
I1
a(lp1670
I8
aI2
aI27
aI85
aaaa(lp1671
S'wasn'
p1672
a(lp1673
I1
a(lp1674
I2
aI1
aI27
aaaa(lp1675
Vwast
p1676
a(lp1677
I1
a(lp1678
I8
aI1
aI127
aaaa(lp1679
Vwatch
p1680
a(lp1681
I1
a(lp1682
I4
aI1
aI32
aaaa(lp1683
S'we'
p1684
a(lp1685
I1
a(lp1686
I1
aI1
aI67
aaaa(lp1687
S'web'
p1688
a(lp1689
I1
a(lp1690
I4
aI1
aI39
aaaa(lp1691
Vweek
p1692
a(lp1693
I1
a(lp1694
I9
aI1
aI17
aaaa(lp1695
S'weight'
p1696
a(lp1697
I1
a(lp1698
I2
aI1
aI80
aaaa(lp1699
S'well'
p1700
a(lp1701
I1
a(lp1702
I2
aI1
aI147
aaaa(lp1703
S'went'
p1704
a(lp1705
I1
a(lp1706
I3
aI1
aI21
aaaa(lp1707
S'were'
p1708
a(lp1709
I1
a(lp1710
I3
aI1
aI43
aaaa(lp1711
S'what'
p1712
a(lp1713
I1
a(lp1714
I4
aI1
aI90
aaaa(lp1715
Vwhatsoev
p1716
a(lp1717
I1
a(lp1718
I4
aI1
aI27
aaaa(lp1719
S'when'
p1720
a(lp1721
I3
a(lp1722
I1
aI2
aI23
aI66
aa(lp1723
I3
aI1
aI58
aa(lp1724
I8
aI1
aI86
aaaa(lp1725
S'where'
p1726
a(lp1727
I1
a(lp1728
I2
aI1
aI57
aaaa(lp1729
S'which'
p1730
a(lp1731
I1
a(lp1732
I8
aI1
aI78
aaaa(lp1733
S'widespread'
p1734
a(lp1735
I1
a(lp1736
I8
aI1
aI49
aaaa(lp1737
S'will'
p1738
a(lp1739
I1
a(lp1740
I8
aI2
aI44
aI177
aaaa(lp1741
S'with'
p1742
a(lp1743
I7
a(lp1744
I1
aI1
aI69
aa(lp1745
I2
aI1
aI16
aa(lp1746
I3
aI1
aI13
aa(lp1747
I4
aI1
aI50
aa(lp1748
I5
aI1
aI7
aa(lp1749
I6
aI1
aI85
aa(lp1750
I8
aI3
aI143
aI152
aI182
aaaa(lp1751
S'won'
p1752
a(lp1753
I3
a(lp1754
I2
aI1
aI102
aa(lp1755
I3
aI1
aI65
aa(lp1756
I8
aI1
aI55
aaaa(lp1757
S'work'
p1758
a(lp1759
I3
a(lp1760
I2
aI3
aI104
aI113
aI146
aa(lp1761
I3
aI3
aI2
aI67
aI90
aa(lp1762
I8
aI1
aI104
aaaa(lp1763
S'worst'
p1764
a(lp1765
I1
a(lp1766
I1
aI1
aI60
aaaa(lp1767
S'would'
p1768
a(lp1769
I3
a(lp1770
I3
aI1
aI83
aa(lp1771
I5
aI1
aI39
aa(lp1772
I8
aI2
aI199
aI209
aaaa(lp1773
Vwrite
p1774
a(lp1775
I1
a(lp1776
I8
aI1
aI220
aaaa(lp1777
S'year'
p1778
a(lp1779
I4
a(lp1780
I1
aI1
aI99
aa(lp1781
I2
aI1
aI14
aa(lp1782
I4
aI1
aI10
aa(lp1783
I8
aI2
aI19
aI82
aaaa(lp1784
S'you'
p1785
a(lp1786
I3
a(lp1787
I6
aI1
aI8
aa(lp1788
I7
aI1
aI8
aa(lp1789
I8
aI1
aI43
aaaatp1790
Rp1791
.